; ModuleID = 'source-C-CXX/29/1882.c'
source_filename = "source-C-CXX/29/1882.c"
target datalayout = "e-m:e-p270:32:32-p271:32:32-p272:64:64-i64:64-f80:128-n8:16:32:64-S128"
target triple = "x86_64-pc-linux-gnu"

@.str = private unnamed_addr constant [3 x i8] c"%d\00", align 1
@.str.1 = private unnamed_addr constant [4 x i8] c"%d\0A\00", align 1

; Function Attrs: nofree nounwind sspstrong uwtable
define dso_local i32 @main() local_unnamed_addr #0 {
  %1 = alloca i32, align 4
  %2 = bitcast i32* %1 to i8*
  call void @llvm.lifetime.start.p0i8(i64 4, i8* nonnull %2) #4
  %3 = call i32 (i8*, ...) @__isoc99_scanf(i8* getelementptr inbounds ([3 x i8], [3 x i8]* @.str, i64 0, i64 0), i32* nonnull %1)
  %4 = load i32, i32* %1, align 4, !tbaa !5
  %5 = icmp slt i32 %4, 1
  br i1 %5, label %32, label %6

6:                                                ; preds = %0, %24
  %7 = phi i32 [ %29, %24 ], [ 0, %0 ]
  %8 = phi i32 [ %30, %24 ], [ 1, %0 ]
  %9 = call i32 @llvm.smax.i32(i32 %8, i32 %4)
  br label %10

10:                                               ; preds = %6, %21
  %11 = phi i32 [ %8, %6 ], [ %22, %21 ]
  %12 = srem i32 %11, 7
  %13 = icmp eq i32 %12, 0
  br i1 %13, label %21, label %14

14:                                               ; preds = %10
  %15 = add nsw i32 %11, -7
  %16 = srem i32 %15, 10
  %17 = icmp eq i32 %16, 0
  %18 = add i32 %11, -71
  %19 = icmp ult i32 %18, 9
  %20 = select i1 %17, i1 true, i1 %19
  br i1 %20, label %21, label %24

21:                                               ; preds = %10, %14
  %22 = add i32 %11, 1
  %23 = icmp eq i32 %11, %9
  br i1 %23, label %32, label %10, !llvm.loop !9

24:                                               ; preds = %14
  %25 = sitofp i32 %11 to double
  %26 = fmul double %25, %25
  %27 = sitofp i32 %7 to double
  %28 = fadd double %26, %27
  %29 = fptosi double %28 to i32
  %30 = add nsw i32 %11, 1
  %31 = icmp slt i32 %11, %4
  br i1 %31, label %6, label %32, !llvm.loop !9

32:                                               ; preds = %24, %21, %0
  %33 = phi i32 [ 0, %0 ], [ %7, %21 ], [ %29, %24 ]
  %34 = call i32 (i8*, ...) @printf(i8* nonnull dereferenceable(1) getelementptr inbounds ([4 x i8], [4 x i8]* @.str.1, i64 0, i64 0), i32 %33)
  call void @llvm.lifetime.end.p0i8(i64 4, i8* nonnull %2) #4
  ret i32 0
}

; Function Attrs: argmemonly mustprogress nofree nosync nounwind willreturn
declare void @llvm.lifetime.start.p0i8(i64 immarg, i8* nocapture) #1

; Function Attrs: nofree nounwind
declare noundef i32 @__isoc99_scanf(i8* nocapture noundef readonly, ...) local_unnamed_addr #2

; Function Attrs: nofree nounwind
declare noundef i32 @printf(i8* nocapture noundef readonly, ...) local_unnamed_addr #2

; Function Attrs: argmemonly mustprogress nofree nosync nounwind willreturn
declare void @llvm.lifetime.end.p0i8(i64 immarg, i8* nocapture) #1

; Function Attrs: nofree nosync nounwind readnone speculatable willreturn
declare i32 @llvm.smax.i32(i32, i32) #3


!llvm.module.flags = !{!0, !1, !2, !3}
!llvm.ident = !{!4}

!0 = !{i32 1, !"wchar_size", i32 4}
!1 = !{i32 7, !"PIC Level", i32 2}
!2 = !{i32 7, !"PIE Level", i32 2}
!3 = !{i32 7, !"uwtable", i32 1}
!4 = !{!"clang version 13.0.0"}
!5 = !{!6, !6, i64 0}
!6 = !{!"int", !7, i64 0}
!7 = !{!"omnipotent char", !8, i64 0}
!8 = !{!"Simple C/C++ TBAA"}
!9 = distinct !{!9, !10}
!10 = !{!"llvm.loop.mustprogress"}
